target datalayout = "e-m:e-p270:32:32-p271:32:32-p272:64:64-i64:64-i128:128-f80:128-n8:16:32:64-S128"
target triple = "x86_64-pc-linux-gnu"

%struct.png_struct_def = type { [1 x %struct.__jmp_buf_tag], ptr, ptr, i64, ptr, ptr, ptr, ptr, ptr, ptr, ptr, ptr, ptr, i8, i8, i32, i32, i32, i32, %struct.z_stream_s, ptr, i32, i32, i32, i32, i32, i32, i32, i32, i32, i32, i32, i32, i32, i32, i32, i32, i32, i32, i32, i32, i32, i64, i32, i32, i32, ptr, ptr, ptr, ptr, i64, i32, i32, ptr, i16, i32, i16, i8, i8, i8, i8, i8, i8, i8, i8, i8, i8, i8, i8, i8, i8, i8, i16, i8, i32, %struct.png_color_16_struct, %struct.png_color_16_struct, ptr, i32, i32, %struct.png_xy, i32, i32, i32, i32, i32, ptr, ptr, ptr, ptr, ptr, ptr, %struct.png_color_8_struct, %struct.png_color_8_struct, ptr, %struct.png_color_16_struct, ptr, ptr, ptr, ptr, ptr, ptr, ptr, ptr, ptr, i32, i32, i64, i64, i64, i64, i32, i32, ptr, ptr, i32, [29 x i8], i32, ptr, ptr, i32, i32, ptr, i8, i8, i16, i16, ptr, i32, i8, ptr, ptr, ptr, ptr, ptr, ptr, ptr, i8, i32, i32, i32, i64, %struct.png_unknown_chunk_t, i64, ptr, i64, i32, i32, ptr, [4 x ptr] }
%struct.__jmp_buf_tag = type { [8 x i64], i32, %struct.__sigset_t }
%struct.__sigset_t = type { [16 x i64] }
%struct.z_stream_s = type { ptr, i32, i64, ptr, i32, i64, ptr, ptr, ptr, ptr, ptr, i32, i64, i64 }
%struct.png_xy = type { i32, i32, i32, i32, i32, i32, i32, i32 }
%struct.png_color_8_struct = type { i8, i8, i8, i8, i8 }
%struct.png_color_16_struct = type { i8, i16, i16, i16, i16 }
%struct.png_unknown_chunk_t = type { [5 x i8], ptr, i64, i8 }

@.str.1 = private unnamed_addr constant [31 x i8] c"Libpng jmp_buf still allocated\00", align 1
@.str.2 = private unnamed_addr constant [33 x i8] c"Application jmp_buf size changed\00", align 1

; Function Attrs: nounwind uwtable
define void @png_warning(ptr noalias noundef %0, ptr noundef %1) #1 {
  %3 = alloca ptr, align 8
  %4 = alloca ptr, align 8
  %5 = alloca i32, align 4
  store ptr %0, ptr %3, align 8, !tbaa !3
  store ptr %1, ptr %4, align 8, !tbaa !8
  call void @llvm.lifetime.start.p0(i64 4, ptr %5) #10
  store i32 0, ptr %5, align 4, !tbaa !31
  %6 = load ptr, ptr %3, align 8, !tbaa !3
  %7 = icmp ne ptr %6, null
  br i1 %7, label %8, label %32

8:                                                ; preds = %2
  %9 = load ptr, ptr %4, align 8, !tbaa !8
  %10 = load i8, ptr %9, align 1, !tbaa !28
  %11 = sext i8 %10 to i32
  %12 = icmp eq i32 %11, 35
  br i1 %12, label %13, label %31

13:                                               ; preds = %8
  store i32 1, ptr %5, align 4, !tbaa !31
  br label %14

14:                                               ; preds = %27, %13
  %15 = load i32, ptr %5, align 4, !tbaa !31
  %16 = icmp slt i32 %15, 15
  br i1 %16, label %17, label %30

17:                                               ; preds = %14
  %18 = load ptr, ptr %4, align 8, !tbaa !8
  %19 = load i32, ptr %5, align 4, !tbaa !31
  %20 = sext i32 %19 to i64
  %21 = getelementptr inbounds i8, ptr %18, i64 %20
  %22 = load i8, ptr %21, align 1, !tbaa !28
  %23 = sext i8 %22 to i32
  %24 = icmp eq i32 %23, 32
  br i1 %24, label %25, label %26

25:                                               ; preds = %17
  br label %30

26:                                               ; preds = %17
  br label %27

27:                                               ; preds = %26
  %28 = load i32, ptr %5, align 4, !tbaa !31
  %29 = add nsw i32 %28, 1
  store i32 %29, ptr %5, align 4, !tbaa !31
  br label %14, !llvm.loop !33

30:                                               ; preds = %25, %14
  br label %31

31:                                               ; preds = %30, %8
  br label %32

32:                                               ; preds = %31, %2
  %33 = load ptr, ptr %3, align 8, !tbaa !3
  %34 = icmp ne ptr %33, null
  br i1 %34, label %35, label %49

35:                                               ; preds = %32
  %36 = load ptr, ptr %3, align 8, !tbaa !3
  %37 = getelementptr inbounds nuw %struct.png_struct_def, ptr %36, i32 0, i32 5
  %38 = load ptr, ptr %37, align 8, !tbaa !34
  %39 = icmp ne ptr %38, null
  br i1 %39, label %40, label %49

40:                                               ; preds = %35
  %41 = load ptr, ptr %3, align 8, !tbaa !3
  %42 = getelementptr inbounds nuw %struct.png_struct_def, ptr %41, i32 0, i32 5
  %43 = load ptr, ptr %42, align 8, !tbaa !34
  %44 = load ptr, ptr %3, align 8, !tbaa !3
  %45 = load ptr, ptr %4, align 8, !tbaa !8
  %46 = load i32, ptr %5, align 4, !tbaa !31
  %47 = sext i32 %46 to i64
  %48 = getelementptr inbounds i8, ptr %45, i64 %47
  call void %43(ptr noundef %44, ptr noundef %48)
  br label %55

49:                                               ; preds = %35, %32
  %50 = load ptr, ptr %3, align 8, !tbaa !3
  %51 = load ptr, ptr %4, align 8, !tbaa !8
  %52 = load i32, ptr %5, align 4, !tbaa !31
  %53 = sext i32 %52 to i64
  %54 = getelementptr inbounds i8, ptr %51, i64 %53
  call void @png_default_warning(ptr noundef %50, ptr noundef %54)
  br label %55

55:                                               ; preds = %49, %40
  call void @llvm.lifetime.end.p0(i64 4, ptr %5) #10
  ret void
}

; Function Attrs: nounwind uwtable
define ptr @png_set_longjmp_fn(ptr noalias noundef %0, ptr noundef %1, i64 noundef %2) #1 {
  %4 = alloca ptr, align 8
  %5 = alloca ptr, align 8
  %6 = alloca ptr, align 8
  %7 = alloca i64, align 8
  %8 = alloca i64, align 8
  %9 = alloca i32, align 4
  store ptr %0, ptr %5, align 8, !tbaa !3
  store ptr %1, ptr %6, align 8, !tbaa !44
  store i64 %2, ptr %7, align 8, !tbaa !27
  %10 = load ptr, ptr %5, align 8, !tbaa !3
  %11 = icmp eq ptr %10, null
  br i1 %11, label %12, label %13

12:                                               ; preds = %3
  store ptr null, ptr %4, align 8
  br label %77

13:                                               ; preds = %3
  %14 = load ptr, ptr %5, align 8, !tbaa !3
  %15 = getelementptr inbounds nuw %struct.png_struct_def, ptr %14, i32 0, i32 2
  %16 = load ptr, ptr %15, align 8, !tbaa !45
  %17 = icmp eq ptr %16, null
  br i1 %17, label %18, label %44

18:                                               ; preds = %13
  %19 = load ptr, ptr %5, align 8, !tbaa !3
  %20 = getelementptr inbounds nuw %struct.png_struct_def, ptr %19, i32 0, i32 3
  store i64 0, ptr %20, align 8, !tbaa !46
  %21 = load i64, ptr %7, align 8, !tbaa !27
  %22 = icmp ule i64 %21, 200
  br i1 %22, label %23, label %28

23:                                               ; preds = %18
  %24 = load ptr, ptr %5, align 8, !tbaa !3
  %25 = getelementptr inbounds nuw %struct.png_struct_def, ptr %24, i32 0, i32 0
  %26 = load ptr, ptr %5, align 8, !tbaa !3
  %27 = getelementptr inbounds nuw %struct.png_struct_def, ptr %26, i32 0, i32 2
  store ptr %25, ptr %27, align 8, !tbaa !45
  br label %43

28:                                               ; preds = %18
  %29 = load ptr, ptr %5, align 8, !tbaa !3
  %30 = load i64, ptr %7, align 8, !tbaa !27
  %31 = call noalias ptr @png_malloc_warn(ptr noundef %29, i64 noundef %30)
  %32 = load ptr, ptr %5, align 8, !tbaa !3
  %33 = getelementptr inbounds nuw %struct.png_struct_def, ptr %32, i32 0, i32 2
  store ptr %31, ptr %33, align 8, !tbaa !45
  %34 = load ptr, ptr %5, align 8, !tbaa !3
  %35 = getelementptr inbounds nuw %struct.png_struct_def, ptr %34, i32 0, i32 2
  %36 = load ptr, ptr %35, align 8, !tbaa !45
  %37 = icmp eq ptr %36, null
  br i1 %37, label %38, label %39

38:                                               ; preds = %28
  store ptr null, ptr %4, align 8
  br label %77

39:                                               ; preds = %28
  %40 = load i64, ptr %7, align 8, !tbaa !27
  %41 = load ptr, ptr %5, align 8, !tbaa !3
  %42 = getelementptr inbounds nuw %struct.png_struct_def, ptr %41, i32 0, i32 3
  store i64 %40, ptr %42, align 8, !tbaa !46
  br label %43

43:                                               ; preds = %39, %23
  br label %70

44:                                               ; preds = %13
  call void @llvm.lifetime.start.p0(i64 8, ptr %8) #10
  %45 = load ptr, ptr %5, align 8, !tbaa !3
  %46 = getelementptr inbounds nuw %struct.png_struct_def, ptr %45, i32 0, i32 3
  %47 = load i64, ptr %46, align 8, !tbaa !46
  store i64 %47, ptr %8, align 8, !tbaa !27
  %48 = load i64, ptr %8, align 8, !tbaa !27
  %49 = icmp eq i64 %48, 0
  br i1 %49, label %50, label %60

50:                                               ; preds = %44
  store i64 200, ptr %8, align 8, !tbaa !27
  %51 = load ptr, ptr %5, align 8, !tbaa !3
  %52 = getelementptr inbounds nuw %struct.png_struct_def, ptr %51, i32 0, i32 2
  %53 = load ptr, ptr %52, align 8, !tbaa !45
  %54 = load ptr, ptr %5, align 8, !tbaa !3
  %55 = getelementptr inbounds nuw %struct.png_struct_def, ptr %54, i32 0, i32 0
  %56 = icmp ne ptr %53, %55
  br i1 %56, label %57, label %59

57:                                               ; preds = %50
  %58 = load ptr, ptr %5, align 8, !tbaa !3
  call void @png_error(ptr noundef %58, ptr noundef @.str.1) #9
  unreachable

59:                                               ; preds = %50
  br label %60

60:                                               ; preds = %59, %44
  %61 = load i64, ptr %8, align 8, !tbaa !27
  %62 = load i64, ptr %7, align 8, !tbaa !27
  %63 = icmp ne i64 %61, %62
  br i1 %63, label %64, label %66

64:                                               ; preds = %60
  %65 = load ptr, ptr %5, align 8, !tbaa !3
  call void @png_warning(ptr noundef %65, ptr noundef @.str.2)
  store ptr null, ptr %4, align 8
  store i32 1, ptr %9, align 4
  br label %67

66:                                               ; preds = %60
  store i32 0, ptr %9, align 4
  br label %67

67:                                               ; preds = %66, %64
  call void @llvm.lifetime.end.p0(i64 8, ptr %8) #10
  %68 = load i32, ptr %9, align 4
  switch i32 %68, label %79 [
    i32 0, label %69
    i32 1, label %77
  ]

69:                                               ; preds = %67
  br label %70

70:                                               ; preds = %69, %43
  %71 = load ptr, ptr %6, align 8, !tbaa !44
  %72 = load ptr, ptr %5, align 8, !tbaa !3
  %73 = getelementptr inbounds nuw %struct.png_struct_def, ptr %72, i32 0, i32 1
  store ptr %71, ptr %73, align 8, !tbaa !47
  %74 = load ptr, ptr %5, align 8, !tbaa !3
  %75 = getelementptr inbounds nuw %struct.png_struct_def, ptr %74, i32 0, i32 2
  %76 = load ptr, ptr %75, align 8, !tbaa !45
  store ptr %76, ptr %4, align 8
  br label %77

77:                                               ; preds = %70, %67, %38, %12
  %78 = load ptr, ptr %4, align 8
  ret ptr %78

79:                                               ; preds = %67
  unreachable
}