; Function Attrs: nounwind uwtable
define ptr @png_set_longjmp_fn(ptr noalias noundef %0, ptr noundef %1, i64 noundef %2) local_unnamed_addr #5 {
  %4 = icmp eq ptr %0, null
  br i1 %4, label %png_warning.exit.thread, label %5

5:                                                ; preds = %3
  %6 = getelementptr inbounds nuw i8, ptr %0, i64 208
  %7 = load ptr, ptr %6, align 8, !tbaa !70
  %8 = icmp eq ptr %7, null
  %9 = getelementptr inbounds nuw i8, ptr %0, i64 216
  br i1 %8, label %10, label %17

10:                                               ; preds = %5
  store i64 0, ptr %9, align 8, !tbaa !71
  %11 = icmp ult i64 %2, 201
  br i1 %11, label %12, label %13

12:                                               ; preds = %10
  store ptr %0, ptr %6, align 8, !tbaa !70
  br label %png_warning.exit

13:                                               ; preds = %10
  %14 = tail call noalias ptr @png_malloc_warn(ptr noundef nonnull %0, i64 noundef %2) #21
  store ptr %14, ptr %6, align 8, !tbaa !70
  %15 = icmp eq ptr %14, null
  br i1 %15, label %png_warning.exit.thread, label %16

16:                                               ; preds = %13
  store i64 %2, ptr %9, align 8, !tbaa !71
  br label %png_warning.exit

17:                                               ; preds = %5
  %18 = load i64, ptr %9, align 8, !tbaa !71
  %19 = icmp eq i64 %18, 0
  br i1 %19, label %20, label %22

20:                                               ; preds = %17
  %.not = icmp eq ptr %7, %0
  br i1 %.not, label %22, label %21

21:                                               ; preds = %20
  tail call void @png_error(ptr noundef nonnull %0, ptr noundef nonnull @.str.1) #22
  unreachable

22:                                               ; preds = %20, %17
  %.024 = phi i64 [ 200, %20 ], [ %18, %17 ]
  %.not30.not = icmp eq i64 %.024, %2
  br i1 %.not30.not, label %png_warning.exit, label %23

23:                                               ; preds = %22
  %24 = getelementptr inbounds nuw i8, ptr %0, i64 232
  %25 = load ptr, ptr %24, align 8, !tbaa !29, !alias.scope !72
  %.not17.i = icmp eq ptr %25, null
  br i1 %.not17.i, label %.split14.i, label %26

.split14.i:                                       ; preds = %23
  tail call fastcc void @png_default_warning(ptr noundef nonnull @.str.2)
  br label %png_warning.exit.thread

26:                                               ; preds = %23
  tail call void %25(ptr noundef nonnull %0, ptr noundef nonnull @.str.2) #21
  br label %png_warning.exit.thread

png_warning.exit:                                 ; preds = %22, %12, %16
  %27 = phi ptr [ %7, %22 ], [ %0, %12 ], [ %14, %16 ]
  %28 = getelementptr inbounds nuw i8, ptr %0, i64 200
  store ptr %1, ptr %28, align 8, !tbaa !75
  br label %png_warning.exit.thread

png_warning.exit.thread:                          ; preds = %.split14.i, %26, %13, %3, %png_warning.exit
  %.025 = phi ptr [ %27, %png_warning.exit ], [ null, %3 ], [ null, %13 ], [ null, %26 ], [ null, %.split14.i ]
  ret ptr %.025
}